; Function Attrs: mustprogress nofree norecurse nosync nounwind willreturn memory(argmem: read) uwtable
define hidden noundef zeroext i1 @_ZNK4cvc58internal6theory5arith6linear22ArithCongruenceManager19hasMorePropagationsEv(ptr noundef nonnull readonly align 8 captures(none) dereferenceable(680) %0) local_unnamed_addr #11 align 2 {
  %2 = getelementptr inbounds nuw i8, ptr %0, i64 432
  %3 = load i64, ptr %2, align 8, !tbaa !116
  %4 = getelementptr inbounds nuw i8, ptr %0, i64 352
  %5 = getelementptr inbounds nuw i8, ptr %0, i64 360
  %6 = load ptr, ptr %5, align 8, !tbaa !19
  %7 = load ptr, ptr %4, align 8, !tbaa !15
  %8 = ptrtoint ptr %6 to i64
  %9 = ptrtoint ptr %7 to i64
  %10 = sub i64 %8, %9
  %11 = ashr exact i64 %10, 3
  %.not = icmp ult i64 %3, %11
  ret i1 %.not
}